; Function Attrs: nounwind uwtable
define internal noundef i32 @H5FD__log_fapl_free(ptr noundef %0) #0 {
  %2 = load i8, ptr @H5FD_init_g, align 1, !tbaa !3, !range !7, !noundef !8
  %3 = trunc nuw i8 %2 to i1
  %4 = load i8, ptr @H5_libterm_g, align 1, !range !7
  %5 = trunc nuw i8 %4 to i1
  %6 = xor i1 %5, true
  %7 = select i1 %3, i1 true, i1 %6
  br i1 %7, label %8, label %14, !prof !9

8:                                                ; preds = %1
  %9 = load ptr, ptr %0, align 8, !tbaa !13
  %.not = icmp eq ptr %9, null
  br i1 %.not, label %12, label %10

10:                                               ; preds = %8
  %11 = tail call ptr @H5MM_xfree(ptr noundef nonnull %9) #19
  store ptr %11, ptr %0, align 8, !tbaa !13
  br label %12

12:                                               ; preds = %10, %8
  %13 = tail call ptr @H5MM_xfree(ptr noundef nonnull %0) #19
  br label %14

14:                                               ; preds = %12, %1
  ret i32 0
}